; Function Attrs: nounwind uwtable
define range(i32 0, 2) i32 @Cec_ManSeqResimulateInfo(ptr noundef %0, ptr noundef readonly captures(none) %1, ptr noundef %2, i32 noundef %3) local_unnamed_addr #0 {
  %5 = alloca %struct.Cec_ParSim_t_, align 4
  call void @Cec_ManSimSetDefaultParams(ptr noundef nonnull %5) #13
  %6 = getelementptr i8, ptr %1, i64 4
  %.val21 = load i32, ptr %6, align 4
  %7 = getelementptr i8, ptr %0, i64 16
  %.val20 = load i32, ptr %7, align 8
  %8 = sub nsw i32 %.val21, %.val20
  %9 = getelementptr i8, ptr %0, i64 64
  %.val23 = load ptr, ptr %9, align 8
  %10 = getelementptr i8, ptr %.val23, i64 4
  %.val23.val = load i32, ptr %10, align 4
  %11 = sub nsw i32 %.val23.val, %.val20
  %12 = sdiv i32 %8, %11
  %13 = getelementptr inbounds nuw i8, ptr %5, i64 4
  store i32 %12, ptr %13, align 4
  %14 = getelementptr i8, ptr %1, i64 8
  %.val = load ptr, ptr %14, align 8
  %.val.val = load ptr, ptr %.val, align 8
  %15 = getelementptr i8, ptr %.val, i64 8
  %.val.val19 = load ptr, ptr %15, align 8
  %16 = ptrtoint ptr %.val.val19 to i64
  %17 = ptrtoint ptr %.val.val to i64
  %18 = sub i64 %16, %17
  %19 = lshr exact i64 %18, 2
  %20 = trunc i64 %19 to i32
  store i32 %20, ptr %5, align 4
  %21 = getelementptr inbounds nuw i8, ptr %5, i64 24
  store i32 %3, ptr %21, align 4
  call void @Gia_ManCreateValueRefs(ptr noundef %0) #13
  %22 = call ptr @Cec_ManSimStart(ptr noundef %0, ptr noundef nonnull %5) #13
  %.not = icmp eq ptr %2, null
  br i1 %.not, label %25, label %23

23:                                               ; preds = %4
  %24 = getelementptr inbounds nuw i8, ptr %22, i64 104
  store ptr %2, ptr %24, align 8
  br label %25

25:                                               ; preds = %23, %4
  %26 = call i32 @Cec_ManSeqResimulate(ptr noundef %22, ptr noundef nonnull %1)
  %27 = getelementptr inbounds nuw i8, ptr %22, i64 104
  store ptr null, ptr %27, align 8
  call void @Cec_ManSimStop(ptr noundef %22) #13
  ret i32 %26
}